target datalayout = "e-m:e-p270:32:32-p271:32:32-p272:64:64-i64:64-i128:128-f80:128-n8:16:32:64-S128"
target triple = "x86_64-pc-linux-gnu"

%struct.slurm_conf_t = type { i64, ptr, i16, ptr, ptr, ptr, ptr, ptr, i16, ptr, ptr, ptr, ptr, ptr, ptr, ptr, i16, ptr, ptr, ptr, ptr, i16, ptr, ptr, ptr, i64, ptr, ptr, ptr, ptr, i16, ptr, ptr, i16, i32, ptr, i32, ptr, i32, i32, ptr, ptr, i64, i64, ptr, i16, i16, ptr, i32, i32, ptr, i32, ptr, i32, i16, i16, i16, ptr, i16, i16, ptr, ptr, i32, i16, i16, ptr, i32, i16, ptr, ptr, ptr, ptr, i16, ptr, ptr, ptr, ptr, i32, ptr, ptr, ptr, ptr, i16, i16, ptr, i32, i32, i32, i16, i16, ptr, ptr, i16, ptr, ptr, i32, i32, i32, i32, i32, i64, i32, i32, i16, ptr, ptr, i32, ptr, ptr, ptr, i16, i32, ptr, ptr, i16, ptr, ptr, i32, i16, ptr, ptr, ptr, ptr, i32, i32, i16, i16, i32, ptr, i16, ptr, i32, i32, i32, i32, i32, i32, ptr, i16, ptr, ptr, i32, i16, ptr, i32, i16, i16, ptr, ptr, ptr, i16, ptr, ptr, ptr, ptr, i16, i16, ptr, i16, ptr, i16, ptr, i16, ptr, i16, ptr, ptr, ptr, ptr, i16, ptr, ptr, ptr, i32, ptr, i32, ptr, ptr, i16, ptr, ptr, i32, i16, ptr, ptr, i16, i16, ptr, i16, ptr, ptr, ptr, i32, ptr, i16, i16, ptr, ptr, ptr, ptr, ptr, ptr, ptr, ptr, i16, i32, i16, ptr, ptr, ptr, ptr, i32, ptr, ptr, ptr, i16, ptr, ptr, ptr, i16, ptr, i16, ptr, i16, i16, ptr }
%struct.node_record = type { ptr, ptr, i16, i64, i64, ptr, ptr, ptr, i16, ptr, i16, i16, i32, i32, i64, ptr, i16, i16, ptr, ptr, ptr, ptr, ptr, i64, i64, ptr, ptr, ptr, ptr, i32, ptr, ptr, i64, i64, i32, ptr, i64, ptr, i32, i16, ptr, ptr, i32, ptr, i32, i8, ptr, i32, i16, i16, ptr, i16, i64, i16, i64, ptr, i64, i32, i16, i64, i16, ptr, i16, i64, ptr, i64, i16, i32, i16, ptr, ptr, ptr, i16, i32, i16, i16, i32, ptr, i16, i32 }
%struct.slurm_update_node_msg = type { ptr, i32, ptr, ptr, ptr, ptr, ptr, ptr, ptr, ptr, ptr, ptr, i32, ptr, i32, i32, i32 }

@rs_node_bitmap = dso_local global ptr null, align 8
@slurm_conf = external global %struct.slurm_conf_t, align 8
@.str.111 = private unnamed_addr constant [11 x i8] c"node_mgr.c\00", align 1
@check_node_timers.power_save_on = internal global i8 0, align 1
@check_node_timers.sched_update = internal global i64 0, align 8
@.str.127 = private unnamed_addr constant [17 x i8] c"reboot timed out\00", align 1
@.str.128 = private unnamed_addr constant [36 x i8] c"Issuing resume request for nodes %s\00", align 1
@__func__.check_node_timers = private unnamed_addr constant [18 x i8] c"check_node_timers\00", align 1

; Function Attrs: nounwind uwtable
define dso_local void @set_node_down_ptr(ptr noundef %0, ptr noundef %1) #0 {
  %3 = alloca ptr, align 8
  %4 = alloca ptr, align 8
  %5 = alloca i64, align 8
  store ptr %0, ptr %3, align 8
  store ptr %1, ptr %4, align 8
  call void @llvm.lifetime.start.p0(i64 8, ptr %5) #10
  %6 = call i64 @time(ptr noundef null) #10
  store i64 %6, ptr %5, align 8
  %7 = load ptr, ptr %3, align 8
  %8 = load ptr, ptr %4, align 8
  %9 = load i64, ptr %5, align 8
  call void @set_node_reason(ptr noundef %7, ptr noundef %8, i64 noundef %9)
  %10 = load ptr, ptr %3, align 8
  %11 = load i64, ptr %5, align 8
  call void @_make_node_down(ptr noundef %10, i64 noundef %11)
  %12 = load ptr, ptr %3, align 8
  %13 = getelementptr inbounds nuw %struct.node_record, ptr %12, i32 0, i32 37
  %14 = load ptr, ptr %13, align 8
  %15 = call i32 @kill_running_job_by_node_name(ptr noundef %14)
  %16 = load ptr, ptr %3, align 8
  call void @_sync_bitmaps(ptr noundef %16, i32 noundef 0)
  call void @llvm.lifetime.end.p0(i64 8, ptr %5) #10
  ret void
}

; Function Attrs: nounwind uwtable
define dso_local void @check_node_timers() #0 {
  %1 = alloca i32, align 4
  %2 = alloca ptr, align 8
  %3 = alloca i64, align 8
  %4 = alloca i16, align 2
  %5 = alloca ptr, align 8
  %6 = alloca ptr, align 8
  %7 = alloca ptr, align 8
  call void @llvm.lifetime.start.p0(i64 4, ptr %1) #10
  call void @llvm.lifetime.start.p0(i64 8, ptr %2) #10
  call void @llvm.lifetime.start.p0(i64 8, ptr %3) #10
  %8 = call i64 @time(ptr noundef null) #10
  store i64 %8, ptr %3, align 8
  call void @llvm.lifetime.start.p0(i64 2, ptr %4) #10
  %9 = load i16, ptr getelementptr inbounds nuw (%struct.slurm_conf_t, ptr @slurm_conf, i32 0, i32 156), align 2
  store i16 %9, ptr %4, align 2
  call void @llvm.lifetime.start.p0(i64 8, ptr %5) #10
  store ptr null, ptr %5, align 8
  %10 = load i64, ptr @check_node_timers.sched_update, align 8
  %11 = load i64, ptr @slurm_conf, align 8
  %12 = icmp ne i64 %10, %11
  br i1 %12, label %13, label %17

13:                                               ; preds = %0
  %14 = call zeroext i1 @power_save_test()
  %15 = zext i1 %14 to i8
  store i8 %15, ptr @check_node_timers.power_save_on, align 1
  %16 = load i64, ptr @slurm_conf, align 8
  store i64 %16, ptr @check_node_timers.sched_update, align 8
  br label %17

17:                                               ; preds = %13, %0
  store i32 0, ptr %1, align 4
  br label %18

18:                                               ; preds = %99, %17
  %19 = call ptr @next_node(ptr noundef %1)
  store ptr %19, ptr %2, align 8
  %20 = icmp ne ptr %19, null
  br i1 %20, label %21, label %102

21:                                               ; preds = %18
  %22 = load ptr, ptr %2, align 8
  %23 = getelementptr inbounds nuw %struct.node_record, ptr %22, i32 0, i32 44
  %24 = load i32, ptr %23, align 8
  %25 = zext i32 %24 to i64
  %26 = and i64 %25, 1048576
  %27 = icmp ne i64 %26, 0
  br i1 %27, label %38, label %28

28:                                               ; preds = %21
  %29 = load i8, ptr @check_node_timers.power_save_on, align 1, !range !11, !noundef !12
  %30 = trunc i8 %29 to i1
  br i1 %30, label %73, label %31

31:                                               ; preds = %28
  %32 = load ptr, ptr %2, align 8
  %33 = getelementptr inbounds nuw %struct.node_record, ptr %32, i32 0, i32 44
  %34 = load i32, ptr %33, align 8
  %35 = zext i32 %34 to i64
  %36 = and i64 %35, 16384
  %37 = icmp ne i64 %36, 0
  br i1 %37, label %38, label %73

38:                                               ; preds = %31, %21
  %39 = load ptr, ptr %2, align 8
  %40 = getelementptr inbounds nuw %struct.node_record, ptr %39, i32 0, i32 3
  %41 = load i64, ptr %40, align 8
  %42 = icmp ne i64 %41, 0
  br i1 %42, label %43, label %73

43:                                               ; preds = %38
  %44 = load ptr, ptr %2, align 8
  %45 = getelementptr inbounds nuw %struct.node_record, ptr %44, i32 0, i32 3
  %46 = load i64, ptr %45, align 8
  %47 = load i16, ptr %4, align 2
  %48 = zext i16 %47 to i64
  %49 = add nsw i64 %46, %48
  %50 = load i64, ptr %3, align 8
  %51 = icmp slt i64 %49, %50
  br i1 %51, label %52, label %73

52:                                               ; preds = %43
  %53 = load ptr, ptr %2, align 8
  %54 = getelementptr inbounds nuw %struct.node_record, ptr %53, i32 0, i32 44
  %55 = load i32, ptr %54, align 8
  %56 = zext i32 %55 to i64
  %57 = and i64 %56, -16385
  %58 = trunc i64 %57 to i32
  store i32 %58, ptr %54, align 8
  %59 = load ptr, ptr %2, align 8
  %60 = getelementptr inbounds nuw %struct.node_record, ptr %59, i32 0, i32 44
  %61 = load i32, ptr %60, align 8
  %62 = zext i32 %61 to i64
  %63 = and i64 %62, -1048577
  %64 = trunc i64 %63 to i32
  store i32 %64, ptr %60, align 8
  %65 = load ptr, ptr %2, align 8
  %66 = getelementptr inbounds nuw %struct.node_record, ptr %65, i32 0, i32 3
  store i64 0, ptr %66, align 8
  %67 = load ptr, ptr %2, align 8
  call void @set_node_down_ptr(ptr noundef %67, ptr noundef @.str.127)
  %68 = load ptr, ptr @rs_node_bitmap, align 8
  %69 = load ptr, ptr %2, align 8
  %70 = getelementptr inbounds nuw %struct.node_record, ptr %69, i32 0, i32 29
  %71 = load i32, ptr %70, align 8
  %72 = zext i32 %71 to i64
  call void @bit_clear(ptr noundef %68, i64 noundef %72)
  br label %98

73:                                               ; preds = %43, %38, %31, %28
  %74 = load ptr, ptr %2, align 8
  %75 = getelementptr inbounds nuw %struct.node_record, ptr %74, i32 0, i32 59
  %76 = load i64, ptr %75, align 8
  %77 = icmp ne i64 %76, 0
  br i1 %77, label %78, label %97

78:                                               ; preds = %73
  %79 = load i64, ptr %3, align 8
  %80 = load ptr, ptr %2, align 8
  %81 = getelementptr inbounds nuw %struct.node_record, ptr %80, i32 0, i32 59
  %82 = load i64, ptr %81, align 8
  %83 = icmp sgt i64 %79, %82
  br i1 %83, label %84, label %97

84:                                               ; preds = %78
  %85 = load ptr, ptr %2, align 8
  %86 = getelementptr inbounds nuw %struct.node_record, ptr %85, i32 0, i32 59
  store i64 0, ptr %86, align 8
  %87 = load ptr, ptr %5, align 8
  %88 = icmp ne ptr %87, null
  br i1 %88, label %91, label %89

89:                                               ; preds = %84
  %90 = call ptr @hostlist_create(ptr noundef null)
  store ptr %90, ptr %5, align 8
  br label %91

91:                                               ; preds = %89, %84
  %92 = load ptr, ptr %5, align 8
  %93 = load ptr, ptr %2, align 8
  %94 = getelementptr inbounds nuw %struct.node_record, ptr %93, i32 0, i32 37
  %95 = load ptr, ptr %94, align 8
  %96 = call i32 @hostlist_push_host(ptr noundef %92, ptr noundef %95)
  br label %97

97:                                               ; preds = %91, %78, %73
  br label %98

98:                                               ; preds = %97, %52
  br label %99

99:                                               ; preds = %98
  %100 = load i32, ptr %1, align 4
  %101 = add nsw i32 %100, 1
  store i32 %101, ptr %1, align 4
  br label %18, !llvm.loop !45

102:                                              ; preds = %18
  %103 = load ptr, ptr %5, align 8
  %104 = icmp ne ptr %103, null
  br i1 %104, label %105, label %131

105:                                              ; preds = %102
  call void @llvm.lifetime.start.p0(i64 8, ptr %6) #10
  call void @llvm.lifetime.start.p0(i64 8, ptr %7) #10
  store ptr null, ptr %7, align 8
  %106 = load ptr, ptr %5, align 8
  call void @hostlist_uniq(ptr noundef %106)
  %107 = load ptr, ptr %5, align 8
  %108 = call ptr @hostlist_ranged_string_xmalloc(ptr noundef %107)
  store ptr %108, ptr %6, align 8
  %109 = load ptr, ptr %5, align 8
  call void @hostlist_destroy(ptr noundef %109)
  br label %110

110:                                              ; preds = %105
  br label %111

111:                                              ; preds = %110
  %112 = call i32 @get_log_level()
  %113 = icmp sge i32 %112, 5
  br i1 %113, label %114, label %116

114:                                              ; preds = %111
  %115 = load ptr, ptr %6, align 8
  call void (i32, ptr, ...) @log_var(i32 noundef 5, ptr noundef @.str.128, ptr noundef %115)
  br label %116

116:                                              ; preds = %114, %111
  br label %117

117:                                              ; preds = %116
  br label %118

118:                                              ; preds = %117
  br label %119

119:                                              ; preds = %118
  br label %120

120:                                              ; preds = %119
  %121 = call ptr @slurm_xcalloc(i64 noundef 1, i64 noundef 128, i1 noundef zeroext true, i1 noundef zeroext false, ptr noundef @.str.111, i32 noundef 4905, ptr noundef @__func__.check_node_timers)
  store ptr %121, ptr %7, align 8
  %122 = load ptr, ptr %7, align 8
  call void @slurm_init_update_node_msg(ptr noundef %122)
  %123 = load ptr, ptr %7, align 8
  %124 = getelementptr inbounds nuw %struct.slurm_update_node_msg, ptr %123, i32 0, i32 12
  store i32 256, ptr %124, align 8
  %125 = load ptr, ptr %6, align 8
  %126 = load ptr, ptr %7, align 8
  %127 = getelementptr inbounds nuw %struct.slurm_update_node_msg, ptr %126, i32 0, i32 11
  store ptr %125, ptr %127, align 8
  %128 = load ptr, ptr %7, align 8
  %129 = call i32 @update_node(ptr noundef %128, i32 noundef 0)
  %130 = load ptr, ptr %7, align 8
  call void @slurm_free_update_node_msg(ptr noundef %130)
  call void @schedule_node_save()
  call void @llvm.lifetime.end.p0(i64 8, ptr %7) #10
  call void @llvm.lifetime.end.p0(i64 8, ptr %6) #10
  br label %131

131:                                              ; preds = %120, %102
  call void @llvm.lifetime.end.p0(i64 8, ptr %5) #10
  call void @llvm.lifetime.end.p0(i64 2, ptr %4) #10
  call void @llvm.lifetime.end.p0(i64 8, ptr %3) #10
  call void @llvm.lifetime.end.p0(i64 8, ptr %2) #10
  call void @llvm.lifetime.end.p0(i64 4, ptr %1) #10
  ret void
}