; Function Attrs: nounwind uwtable
define dso_local void @check_node_timers() local_unnamed_addr #0 {
  %1 = alloca i32, align 4
  call void @llvm.lifetime.start.p0(i64 4, ptr nonnull %1) #15
  %2 = tail call i64 @time(ptr noundef null) #15
  %3 = load i16, ptr getelementptr inbounds nuw (i8, ptr @slurm_conf, i64 1018), align 2
  %4 = load i64, ptr @check_node_timers.sched_update, align 8
  %5 = load i64, ptr @slurm_conf, align 8
  %.not = icmp eq i64 %4, %5
  br i1 %.not, label %10, label %6

6:                                                ; preds = %0
  %7 = tail call zeroext i1 @power_save_test() #15
  %8 = zext i1 %7 to i8
  store i8 %8, ptr @check_node_timers.power_save_on, align 1
  %9 = load i64, ptr @slurm_conf, align 8
  store i64 %9, ptr @check_node_timers.sched_update, align 8
  br label %10

10:                                               ; preds = %6, %0
  store i32 0, ptr %1, align 4
  %11 = call ptr @next_node(ptr noundef nonnull %1) #15
  %.not3142 = icmp eq ptr %11, null
  br i1 %.not3142, label %._crit_edge.thread, label %.lr.ph

.lr.ph:                                           ; preds = %10
  %12 = zext i16 %3 to i64
  br label %13

13:                                               ; preds = %.lr.ph, %49
  %14 = phi ptr [ %11, %.lr.ph ], [ %52, %49 ]
  %.043 = phi ptr [ null, %.lr.ph ], [ %.2, %49 ]
  %15 = getelementptr inbounds nuw i8, ptr %14, i64 320
  %16 = load i32, ptr %15, align 8
  %17 = zext i32 %16 to i64
  %18 = and i64 %17, 1048576
  %.not33 = icmp eq i64 %18, 0
  br i1 %.not33, label %19, label %23

19:                                               ; preds = %13
  %20 = load i8, ptr @check_node_timers.power_save_on, align 1, !range !11, !noundef !12
  %21 = trunc nuw i8 %20 to i1
  %22 = and i64 %17, 16384
  %.not34 = icmp eq i64 %22, 0
  %or.cond = or i1 %.not34, %21
  br i1 %or.cond, label %38, label %23

23:                                               ; preds = %19, %13
  %24 = getelementptr inbounds nuw i8, ptr %14, i64 24
  %25 = load i64, ptr %24, align 8
  %.not35 = icmp ne i64 %25, 0
  %26 = add nsw i64 %25, %12
  %27 = icmp slt i64 %26, %2
  %or.cond40 = select i1 %.not35, i1 %27, i1 false
  br i1 %or.cond40, label %28, label %38

28:                                               ; preds = %23
  %29 = and i32 %16, -1064961
  store i32 %29, ptr %15, align 8
  store i64 0, ptr %24, align 8
  %30 = call i64 @time(ptr noundef null) #15
  call void @set_node_reason(ptr noundef nonnull %14, ptr noundef nonnull @.str.127, i64 noundef %30)
  call fastcc void @_make_node_down(ptr noundef nonnull %14, i64 noundef %30)
  %31 = getelementptr inbounds nuw i8, ptr %14, i64 272
  %32 = load ptr, ptr %31, align 8
  %33 = call i32 @kill_running_job_by_node_name(ptr noundef %32) #15
  call fastcc void @_sync_bitmaps(ptr noundef nonnull %14, i32 noundef 0)
  %34 = load ptr, ptr @rs_node_bitmap, align 8
  %35 = getelementptr inbounds nuw i8, ptr %14, i64 208
  %36 = load i32, ptr %35, align 8
  %37 = zext i32 %36 to i64
  call void @bit_clear(ptr noundef %34, i64 noundef %37) #15
  br label %49

38:                                               ; preds = %23, %19
  %39 = getelementptr inbounds nuw i8, ptr %14, i64 408
  %40 = load i64, ptr %39, align 8
  %.not36 = icmp ne i64 %40, 0
  %41 = icmp sgt i64 %2, %40
  %or.cond41 = select i1 %.not36, i1 %41, i1 false
  br i1 %or.cond41, label %42, label %49

42:                                               ; preds = %38
  store i64 0, ptr %39, align 8
  %.not37 = icmp eq ptr %.043, null
  br i1 %.not37, label %43, label %45

43:                                               ; preds = %42
  %44 = call ptr @hostlist_create(ptr noundef null) #15
  br label %45

45:                                               ; preds = %43, %42
  %.1 = phi ptr [ %.043, %42 ], [ %44, %43 ]
  %46 = getelementptr inbounds nuw i8, ptr %14, i64 272
  %47 = load ptr, ptr %46, align 8
  %48 = call i32 @hostlist_push_host(ptr noundef %.1, ptr noundef %47) #15
  br label %49

49:                                               ; preds = %28, %45, %38
  %.2 = phi ptr [ %.043, %28 ], [ %.1, %45 ], [ %.043, %38 ]
  %50 = load i32, ptr %1, align 4
  %51 = add nsw i32 %50, 1
  store i32 %51, ptr %1, align 4
  %52 = call ptr @next_node(ptr noundef nonnull %1) #15
  %.not31 = icmp eq ptr %52, null
  br i1 %.not31, label %._crit_edge, label %13, !llvm.loop !44

._crit_edge:                                      ; preds = %49
  %.not32 = icmp eq ptr %.2, null
  br i1 %.not32, label %._crit_edge.thread, label %53

53:                                               ; preds = %._crit_edge
  call void @hostlist_uniq(ptr noundef nonnull %.2) #15
  %54 = call ptr @hostlist_ranged_string_xmalloc(ptr noundef nonnull %.2) #15
  call void @hostlist_destroy(ptr noundef nonnull %.2) #15
  %55 = call i32 @get_log_level() #15
  %56 = icmp sgt i32 %55, 4
  br i1 %56, label %57, label %58

57:                                               ; preds = %53
  call void (i32, ptr, ...) @log_var(i32 noundef 5, ptr noundef nonnull @.str.128, ptr noundef %54) #15
  br label %58

58:                                               ; preds = %57, %53
  %59 = call ptr @slurm_xcalloc(i64 noundef 1, i64 noundef 128, i1 noundef zeroext true, i1 noundef zeroext false, ptr noundef nonnull @.str.111, i32 noundef 4905, ptr noundef nonnull @__func__.check_node_timers) #15
  call void @slurm_init_update_node_msg(ptr noundef %59) #15
  %60 = getelementptr inbounds nuw i8, ptr %59, i64 96
  store i32 256, ptr %60, align 8
  %61 = getelementptr inbounds nuw i8, ptr %59, i64 88
  store ptr %54, ptr %61, align 8
  %62 = call i32 @update_node(ptr noundef %59, i32 noundef 0)
  call void @slurm_free_update_node_msg(ptr noundef %59) #15
  call void @schedule_node_save() #15
  br label %._crit_edge.thread

._crit_edge.thread:                               ; preds = %10, %58, %._crit_edge
  call void @llvm.lifetime.end.p0(i64 4, ptr nonnull %1) #15
  ret void
}